; Function Attrs: mustprogress nounwind uwtable
define void @_ZN19OpenColorIO_v2_5dev12GPUProcessor7deleterEPS0_(ptr noundef %0) local_unnamed_addr #5 align 2 {
  %2 = icmp eq ptr %0, null
  br i1 %2, label %4, label %3

3:                                                ; preds = %1
  tail call void @_ZN19OpenColorIO_v2_5dev12GPUProcessorD1Ev(ptr noundef nonnull align 8 dereferenceable(8) %0) #22
  tail call void @_ZdlPvm(ptr noundef nonnull %0, i64 noundef 8) #24
  br label %4

4:                                                ; preds = %3, %1
  ret void
}